; Function Attrs: mustprogress uwtable
define hidden void @_ZN17expr_substitutionC2ER11ast_manager(ptr noundef nonnull align 8 dereferenceable(49) initializes((0, 28), (32, 48)) %0, ptr noundef nonnull align 8 dereferenceable(976) %1) unnamed_addr #3 align 2 personality ptr @__gxx_personality_v0 {
  store ptr %1, ptr %0, align 8, !tbaa !25
  %3 = getelementptr inbounds nuw i8, ptr %0, i64 8
  %4 = tail call noalias noundef ptr @_ZN6memory8allocateEm(i64 noundef 128)
  tail call void @llvm.memset.p0.i64(ptr noundef nonnull align 8 dereferenceable(128) %4, i8 0, i64 128, i1 false)
  store ptr %4, ptr %3, align 8, !tbaa !27
  %5 = getelementptr inbounds nuw i8, ptr %0, i64 16
  store i32 8, ptr %5, align 8, !tbaa !30
  %6 = getelementptr inbounds nuw i8, ptr %0, i64 20
  store i32 0, ptr %6, align 4, !tbaa !31
  %7 = getelementptr inbounds nuw i8, ptr %0, i64 24
  store i32 0, ptr %7, align 8, !tbaa !32
  %8 = getelementptr inbounds nuw i8, ptr %0, i64 32
  %9 = getelementptr inbounds nuw i8, ptr %0, i64 48
  tail call void @llvm.memset.p0.i64(ptr noundef nonnull align 8 dereferenceable(16) %8, i8 0, i64 16, i1 false)
  %10 = load i8, ptr %9, align 8
  %11 = and i8 %10, -2
  store i8 %11, ptr %9, align 8
  %12 = getelementptr inbounds nuw i8, ptr %1, i64 712
  %13 = load i32, ptr %12, align 8, !tbaa !33
  %.not = icmp eq i32 %13, 0
  %14 = select i1 %.not, i8 0, i8 2
  %15 = and i8 %10, -4
  %16 = or disjoint i8 %14, %15
  store i8 %16, ptr %9, align 8
  invoke void @_ZN17expr_substitution4initEv(ptr noundef nonnull align 8 dereferenceable(49) %0)
          to label %17 unwind label %18

17:                                               ; preds = %2
  ret void

18:                                               ; preds = %2
  %19 = landingpad { ptr, i32 }
          cleanup
  %20 = getelementptr inbounds nuw i8, ptr %0, i64 40
  tail call void @_ZN10scoped_ptrI7obj_mapI4exprPN18dependency_managerIN11ast_manager22expr_dependency_configEE10dependencyEEED2Ev(ptr noundef nonnull align 8 dereferenceable(8) %20) #21
  tail call void @_ZN10scoped_ptrI7obj_mapI4exprP3appEED2Ev(ptr noundef nonnull align 8 dereferenceable(8) %8) #21
  tail call void @_ZN7obj_mapI4exprPS0_ED2Ev(ptr noundef nonnull align 8 dereferenceable(24) %3) #21
  resume { ptr, i32 } %19
}